target datalayout = "e-m:e-p270:32:32-p271:32:32-p272:64:64-i64:64-i128:128-f80:128-n8:16:32:64-S128"
target triple = "x86_64-pc-linux-gnu"

@.str.14 = private unnamed_addr constant [5 x i8] c"fips\00", align 1
@.str.18 = private unnamed_addr constant [30 x i8] c"../openssl/test/threadstest.c\00", align 1
@global_lock = internal global ptr null, align 8
@multi_success = internal global i32 0, align 4
@multi_libctx = internal global ptr null, align 8
@.str.53 = private unnamed_addr constant [9 x i8] c"SHA2-256\00", align 1
@.str.123 = private unnamed_addr constant [12 x i8] c"AES-128-CBC\00", align 1
@.str.124 = private unnamed_addr constant [12 x i8] c"Hello World\00", align 1
@__const.thread_general_worker.key = private unnamed_addr constant [16 x i8] c"\00\01\02\03\04\05\06\07\08\09\0A\0B\0C\0D\0E\0F", align 16
@__const.thread_general_worker.iv = private unnamed_addr constant [16 x i8] c"\00\01\02\03\04\05\06\07\08\09\0A\0B\0C\0D\0E\0F", align 16
@.str.125 = private unnamed_addr constant [6 x i8] c"mdctx\00", align 1
@.str.126 = private unnamed_addr constant [3 x i8] c"md\00", align 1
@.str.127 = private unnamed_addr constant [10 x i8] c"cipherctx\00", align 1
@.str.128 = private unnamed_addr constant [5 x i8] c"ciph\00", align 1
@.str.129 = private unnamed_addr constant [35 x i8] c"EVP_DigestInit_ex(mdctx, md, NULL)\00", align 1
@.str.130 = private unnamed_addr constant [42 x i8] c"EVP_DigestUpdate(mdctx, message, messlen)\00", align 1
@.str.131 = private unnamed_addr constant [37 x i8] c"EVP_DigestFinal(mdctx, out, &mdoutl)\00", align 1
@.str.132 = private unnamed_addr constant [51 x i8] c"EVP_EncryptInit_ex(cipherctx, ciph, NULL, key, iv)\00", align 1
@.str.133 = private unnamed_addr constant [80 x i8] c"EVP_EncryptUpdate(cipherctx, out, &ciphoutl, (unsigned char *)message, messlen)\00", align 1
@.str.134 = private unnamed_addr constant [44 x i8] c"EVP_EncryptFinal(cipherctx, out, &ciphoutl)\00", align 1
@.str.135 = private unnamed_addr constant [4 x i8] c"RSA\00", align 1
@.str.136 = private unnamed_addr constant [5 x i8] c"pkey\00", align 1

; Function Attrs: nounwind uwtable
define internal void @multi_set_success(i32 noundef %0) #0 {
  %2 = alloca i32, align 4
  store i32 %0, ptr %2, align 4, !tbaa !4
  %3 = load ptr, ptr @global_lock, align 8, !tbaa !13
  %4 = call i32 @CRYPTO_THREAD_write_lock(ptr noundef %3)
  %5 = icmp eq i32 %4, 0
  br i1 %5, label %6, label %8

6:                                                ; preds = %1
  %7 = load i32, ptr %2, align 4, !tbaa !4
  store i32 %7, ptr @multi_success, align 4, !tbaa !4
  br label %12

8:                                                ; preds = %1
  %9 = load i32, ptr %2, align 4, !tbaa !4
  store i32 %9, ptr @multi_success, align 4, !tbaa !4
  %10 = load ptr, ptr @global_lock, align 8, !tbaa !13
  %11 = call i32 @CRYPTO_THREAD_unlock(ptr noundef %10)
  br label %12

12:                                               ; preds = %8, %6
  ret void
}

; Function Attrs: nounwind uwtable
define internal void @thread_general_worker() #0 {
  %1 = alloca ptr, align 8
  %2 = alloca ptr, align 8
  %3 = alloca ptr, align 8
  %4 = alloca ptr, align 8
  %5 = alloca ptr, align 8
  %6 = alloca i64, align 8
  %7 = alloca [64 x i8], align 16
  %8 = alloca [16 x i8], align 16
  %9 = alloca [16 x i8], align 16
  %10 = alloca i32, align 4
  %11 = alloca i32, align 4
  %12 = alloca ptr, align 8
  %13 = alloca i32, align 4
  %14 = alloca i32, align 4
  %15 = alloca i32, align 4
  call void @llvm.lifetime.start.p0(i64 8, ptr %1) #10
  %16 = call ptr @EVP_MD_CTX_new()
  store ptr %16, ptr %1, align 8, !tbaa !53
  call void @llvm.lifetime.start.p0(i64 8, ptr %2) #10
  %17 = load ptr, ptr @multi_libctx, align 8, !tbaa !20
  %18 = call ptr @EVP_MD_fetch(ptr noundef %17, ptr noundef @.str.53, ptr noundef null)
  store ptr %18, ptr %2, align 8, !tbaa !24
  call void @llvm.lifetime.start.p0(i64 8, ptr %3) #10
  %19 = call ptr @EVP_CIPHER_CTX_new()
  store ptr %19, ptr %3, align 8, !tbaa !55
  call void @llvm.lifetime.start.p0(i64 8, ptr %4) #10
  %20 = load ptr, ptr @multi_libctx, align 8, !tbaa !20
  %21 = call ptr @EVP_CIPHER_fetch(ptr noundef %20, ptr noundef @.str.123, ptr noundef null)
  store ptr %21, ptr %4, align 8, !tbaa !57
  call void @llvm.lifetime.start.p0(i64 8, ptr %5) #10
  store ptr @.str.124, ptr %5, align 8, !tbaa !8
  call void @llvm.lifetime.start.p0(i64 8, ptr %6) #10
  %22 = load ptr, ptr %5, align 8, !tbaa !8
  %23 = call i64 @strlen(ptr noundef %22) #12
  store i64 %23, ptr %6, align 8, !tbaa !14
  call void @llvm.lifetime.start.p0(i64 64, ptr %7) #10
  call void @llvm.lifetime.start.p0(i64 16, ptr %8) #10
  call void @llvm.memcpy.p0.p0.i64(ptr align 16 %8, ptr align 16 @__const.thread_general_worker.key, i64 16, i1 false)
  call void @llvm.lifetime.start.p0(i64 16, ptr %9) #10
  call void @llvm.memcpy.p0.p0.i64(ptr align 16 %9, ptr align 16 @__const.thread_general_worker.iv, i64 16, i1 false)
  call void @llvm.lifetime.start.p0(i64 4, ptr %10) #10
  call void @llvm.lifetime.start.p0(i64 4, ptr %11) #10
  call void @llvm.lifetime.start.p0(i64 8, ptr %12) #10
  store ptr null, ptr %12, align 8, !tbaa !18
  call void @llvm.lifetime.start.p0(i64 4, ptr %13) #10
  store i32 0, ptr %13, align 4, !tbaa !4
  call void @llvm.lifetime.start.p0(i64 4, ptr %14) #10
  call void @llvm.lifetime.start.p0(i64 4, ptr %15) #10
  %24 = load ptr, ptr @multi_libctx, align 8, !tbaa !20
  %25 = call i32 @OSSL_PROVIDER_available(ptr noundef %24, ptr noundef @.str.14)
  store i32 %25, ptr %15, align 4, !tbaa !4
  %26 = load ptr, ptr %1, align 8, !tbaa !53
  %27 = call i32 @test_ptr(ptr noundef @.str.18, i32 noundef 839, ptr noundef @.str.125, ptr noundef %26)
  %28 = icmp ne i32 %27, 0
  br i1 %28, label %29, label %41

29:                                               ; preds = %0
  %30 = load ptr, ptr %2, align 8, !tbaa !24
  %31 = call i32 @test_ptr(ptr noundef @.str.18, i32 noundef 840, ptr noundef @.str.126, ptr noundef %30)
  %32 = icmp ne i32 %31, 0
  br i1 %32, label %33, label %41

33:                                               ; preds = %29
  %34 = load ptr, ptr %3, align 8, !tbaa !55
  %35 = call i32 @test_ptr(ptr noundef @.str.18, i32 noundef 841, ptr noundef @.str.127, ptr noundef %34)
  %36 = icmp ne i32 %35, 0
  br i1 %36, label %37, label %41

37:                                               ; preds = %33
  %38 = load ptr, ptr %4, align 8, !tbaa !57
  %39 = call i32 @test_ptr(ptr noundef @.str.18, i32 noundef 842, ptr noundef @.str.128, ptr noundef %38)
  %40 = icmp ne i32 %39, 0
  br i1 %40, label %42, label %41

41:                                               ; preds = %37, %33, %29, %0
  br label %126

42:                                               ; preds = %37
  store i32 0, ptr %14, align 4, !tbaa !4
  br label %43

43:                                               ; preds = %73, %42
  %44 = load i32, ptr %14, align 4, !tbaa !4
  %45 = icmp slt i32 %44, 5
  br i1 %45, label %46, label %76

46:                                               ; preds = %43
  %47 = load ptr, ptr %1, align 8, !tbaa !53
  %48 = load ptr, ptr %2, align 8, !tbaa !24
  %49 = call i32 @EVP_DigestInit_ex(ptr noundef %47, ptr noundef %48, ptr noundef null)
  %50 = icmp ne i32 %49, 0
  %51 = zext i1 %50 to i32
  %52 = call i32 @test_true(ptr noundef @.str.18, i32 noundef 847, ptr noundef @.str.129, i32 noundef %51)
  %53 = icmp ne i32 %52, 0
  br i1 %53, label %54, label %71

54:                                               ; preds = %46
  %55 = load ptr, ptr %1, align 8, !tbaa !53
  %56 = load ptr, ptr %5, align 8, !tbaa !8
  %57 = load i64, ptr %6, align 8, !tbaa !14
  %58 = call i32 @EVP_DigestUpdate(ptr noundef %55, ptr noundef %56, i64 noundef %57)
  %59 = icmp ne i32 %58, 0
  %60 = zext i1 %59 to i32
  %61 = call i32 @test_true(ptr noundef @.str.18, i32 noundef 848, ptr noundef @.str.130, i32 noundef %60)
  %62 = icmp ne i32 %61, 0
  br i1 %62, label %63, label %71

63:                                               ; preds = %54
  %64 = load ptr, ptr %1, align 8, !tbaa !53
  %65 = getelementptr inbounds [64 x i8], ptr %7, i64 0, i64 0
  %66 = call i32 @EVP_DigestFinal(ptr noundef %64, ptr noundef %65, ptr noundef %10)
  %67 = icmp ne i32 %66, 0
  %68 = zext i1 %67 to i32
  %69 = call i32 @test_true(ptr noundef @.str.18, i32 noundef 849, ptr noundef @.str.131, i32 noundef %68)
  %70 = icmp ne i32 %69, 0
  br i1 %70, label %72, label %71

71:                                               ; preds = %63, %54, %46
  br label %126

72:                                               ; preds = %63
  br label %73

73:                                               ; preds = %72
  %74 = load i32, ptr %14, align 4, !tbaa !4
  %75 = add nsw i32 %74, 1
  store i32 %75, ptr %14, align 4, !tbaa !4
  br label %43, !llvm.loop !59

76:                                               ; preds = %43
  store i32 0, ptr %14, align 4, !tbaa !4
  br label %77

77:                                               ; preds = %111, %76
  %78 = load i32, ptr %14, align 4, !tbaa !4
  %79 = icmp slt i32 %78, 5
  br i1 %79, label %80, label %114

80:                                               ; preds = %77
  %81 = load ptr, ptr %3, align 8, !tbaa !55
  %82 = load ptr, ptr %4, align 8, !tbaa !57
  %83 = getelementptr inbounds [16 x i8], ptr %8, i64 0, i64 0
  %84 = getelementptr inbounds [16 x i8], ptr %9, i64 0, i64 0
  %85 = call i32 @EVP_EncryptInit_ex(ptr noundef %81, ptr noundef %82, ptr noundef null, ptr noundef %83, ptr noundef %84)
  %86 = icmp ne i32 %85, 0
  %87 = zext i1 %86 to i32
  %88 = call i32 @test_true(ptr noundef @.str.18, i32 noundef 853, ptr noundef @.str.132, i32 noundef %87)
  %89 = icmp ne i32 %88, 0
  br i1 %89, label %90, label %109

90:                                               ; preds = %80
  %91 = load ptr, ptr %3, align 8, !tbaa !55
  %92 = getelementptr inbounds [64 x i8], ptr %7, i64 0, i64 0
  %93 = load ptr, ptr %5, align 8, !tbaa !8
  %94 = load i64, ptr %6, align 8, !tbaa !14
  %95 = trunc i64 %94 to i32
  %96 = call i32 @EVP_EncryptUpdate(ptr noundef %91, ptr noundef %92, ptr noundef %11, ptr noundef %93, i32 noundef %95)
  %97 = icmp ne i32 %96, 0
  %98 = zext i1 %97 to i32
  %99 = call i32 @test_true(ptr noundef @.str.18, i32 noundef 856, ptr noundef @.str.133, i32 noundef %98)
  %100 = icmp ne i32 %99, 0
  br i1 %100, label %101, label %109

101:                                              ; preds = %90
  %102 = load ptr, ptr %3, align 8, !tbaa !55
  %103 = getelementptr inbounds [64 x i8], ptr %7, i64 0, i64 0
  %104 = call i32 @EVP_EncryptFinal(ptr noundef %102, ptr noundef %103, ptr noundef %11)
  %105 = icmp ne i32 %104, 0
  %106 = zext i1 %105 to i32
  %107 = call i32 @test_true(ptr noundef @.str.18, i32 noundef 857, ptr noundef @.str.134, i32 noundef %106)
  %108 = icmp ne i32 %107, 0
  br i1 %108, label %110, label %109

109:                                              ; preds = %101, %90, %80
  br label %126

110:                                              ; preds = %101
  br label %111

111:                                              ; preds = %110
  %112 = load i32, ptr %14, align 4, !tbaa !4
  %113 = add nsw i32 %112, 1
  store i32 %113, ptr %14, align 4, !tbaa !4
  br label %77, !llvm.loop !60

114:                                              ; preds = %77
  %115 = load ptr, ptr @multi_libctx, align 8, !tbaa !20
  %116 = load i32, ptr %15, align 4, !tbaa !4
  %117 = icmp ne i32 %116, 0
  %118 = select i1 %117, i32 2048, i32 512
  %119 = sext i32 %118 to i64
  %120 = call ptr (ptr, ptr, ptr, ...) @EVP_PKEY_Q_keygen(ptr noundef %115, ptr noundef null, ptr noundef @.str.135, i64 noundef %119)
  store ptr %120, ptr %12, align 8, !tbaa !18
  %121 = load ptr, ptr %12, align 8, !tbaa !18
  %122 = call i32 @test_ptr(ptr noundef @.str.18, i32 noundef 867, ptr noundef @.str.136, ptr noundef %121)
  %123 = icmp ne i32 %122, 0
  br i1 %123, label %125, label %124

124:                                              ; preds = %114
  br label %126

125:                                              ; preds = %114
  store i32 1, ptr %13, align 4, !tbaa !4
  br label %126

126:                                              ; preds = %125, %124, %109, %71, %41
  %127 = load ptr, ptr %1, align 8, !tbaa !53
  call void @EVP_MD_CTX_free(ptr noundef %127)
  %128 = load ptr, ptr %2, align 8, !tbaa !24
  call void @EVP_MD_free(ptr noundef %128)
  %129 = load ptr, ptr %3, align 8, !tbaa !55
  call void @EVP_CIPHER_CTX_free(ptr noundef %129)
  %130 = load ptr, ptr %4, align 8, !tbaa !57
  call void @EVP_CIPHER_free(ptr noundef %130)
  %131 = load ptr, ptr %12, align 8, !tbaa !18
  call void @EVP_PKEY_free(ptr noundef %131)
  %132 = load i32, ptr %13, align 4, !tbaa !4
  %133 = icmp ne i32 %132, 0
  br i1 %133, label %135, label %134

134:                                              ; preds = %126
  call void @multi_set_success(i32 noundef 0)
  br label %135

135:                                              ; preds = %134, %126
  call void @llvm.lifetime.end.p0(i64 4, ptr %15) #10
  call void @llvm.lifetime.end.p0(i64 4, ptr %14) #10
  call void @llvm.lifetime.end.p0(i64 4, ptr %13) #10
  call void @llvm.lifetime.end.p0(i64 8, ptr %12) #10
  call void @llvm.lifetime.end.p0(i64 4, ptr %11) #10
  call void @llvm.lifetime.end.p0(i64 4, ptr %10) #10
  call void @llvm.lifetime.end.p0(i64 16, ptr %9) #10
  call void @llvm.lifetime.end.p0(i64 16, ptr %8) #10
  call void @llvm.lifetime.end.p0(i64 64, ptr %7) #10
  call void @llvm.lifetime.end.p0(i64 8, ptr %6) #10
  call void @llvm.lifetime.end.p0(i64 8, ptr %5) #10
  call void @llvm.lifetime.end.p0(i64 8, ptr %4) #10
  call void @llvm.lifetime.end.p0(i64 8, ptr %3) #10
  call void @llvm.lifetime.end.p0(i64 8, ptr %2) #10
  call void @llvm.lifetime.end.p0(i64 8, ptr %1) #10
  ret void
}