; Function Attrs: nounwind uwtable
define internal void @thread_general_worker() #1 {
  %1 = alloca [64 x i8], align 16
  %2 = alloca [16 x i8], align 16
  %3 = alloca [16 x i8], align 16
  %4 = alloca i32, align 4
  %5 = alloca i32, align 4
  %6 = tail call ptr @EVP_MD_CTX_new() #11
  %7 = load ptr, ptr @multi_libctx, align 8, !tbaa !16
  %8 = tail call ptr @EVP_MD_fetch(ptr noundef %7, ptr noundef nonnull @.str.53, ptr noundef null) #11
  %9 = tail call ptr @EVP_CIPHER_CTX_new() #11
  %10 = load ptr, ptr @multi_libctx, align 8, !tbaa !16
  %11 = tail call ptr @EVP_CIPHER_fetch(ptr noundef %10, ptr noundef nonnull @.str.123, ptr noundef null) #11
  call void @llvm.lifetime.start.p0(i64 64, ptr nonnull %1) #11
  call void @llvm.lifetime.start.p0(i64 16, ptr nonnull %2) #11
  call void @llvm.memcpy.p0.p0.i64(ptr noundef nonnull align 16 dereferenceable(16) %2, ptr noundef nonnull align 16 dereferenceable(16) @__const.thread_general_worker.iv, i64 16, i1 false)
  call void @llvm.lifetime.start.p0(i64 16, ptr nonnull %3) #11
  call void @llvm.memcpy.p0.p0.i64(ptr noundef nonnull align 16 dereferenceable(16) %3, ptr noundef nonnull align 16 dereferenceable(16) @__const.thread_general_worker.iv, i64 16, i1 false)
  call void @llvm.lifetime.start.p0(i64 4, ptr nonnull %4) #11
  call void @llvm.lifetime.start.p0(i64 4, ptr nonnull %5) #11
  %12 = load ptr, ptr @multi_libctx, align 8, !tbaa !16
  %13 = tail call i32 @OSSL_PROVIDER_available(ptr noundef %12, ptr noundef nonnull @.str.14) #11
  %14 = tail call i32 @test_ptr(ptr noundef nonnull @.str.18, i32 noundef 839, ptr noundef nonnull @.str.125, ptr noundef %6) #11
  %.not = icmp eq i32 %14, 0
  br i1 %.not, label %.critedge, label %15

15:                                               ; preds = %0
  %16 = tail call i32 @test_ptr(ptr noundef nonnull @.str.18, i32 noundef 840, ptr noundef nonnull @.str.126, ptr noundef %8) #11
  %.not30 = icmp eq i32 %16, 0
  br i1 %.not30, label %.critedge, label %17

17:                                               ; preds = %15
  %18 = tail call i32 @test_ptr(ptr noundef nonnull @.str.18, i32 noundef 841, ptr noundef nonnull @.str.127, ptr noundef %9) #11
  %.not31 = icmp eq i32 %18, 0
  br i1 %.not31, label %.critedge, label %19

19:                                               ; preds = %17
  %20 = tail call i32 @test_ptr(ptr noundef nonnull @.str.18, i32 noundef 842, ptr noundef nonnull @.str.128, ptr noundef %11) #11
  %.not32 = icmp eq i32 %20, 0
  br i1 %.not32, label %.critedge, label %.preheader42

21:                                               ; preds = %32
  %22 = add nuw nsw i32 %.02844, 1
  %exitcond.not = icmp eq i32 %22, 5
  br i1 %exitcond.not, label %.preheader, label %.preheader42, !llvm.loop !38

.preheader42:                                     ; preds = %19, %21
  %.02844 = phi i32 [ %22, %21 ], [ 0, %19 ]
  %23 = call i32 @EVP_DigestInit_ex(ptr noundef %6, ptr noundef %8, ptr noundef null) #11
  %24 = icmp ne i32 %23, 0
  %25 = zext i1 %24 to i32
  %26 = call i32 @test_true(ptr noundef nonnull @.str.18, i32 noundef 847, ptr noundef nonnull @.str.129, i32 noundef %25) #11
  %.not38 = icmp eq i32 %26, 0
  br i1 %.not38, label %.critedge, label %27

27:                                               ; preds = %.preheader42
  %28 = call i32 @EVP_DigestUpdate(ptr noundef %6, ptr noundef nonnull @.str.124, i64 noundef 11) #11
  %29 = icmp ne i32 %28, 0
  %30 = zext i1 %29 to i32
  %31 = call i32 @test_true(ptr noundef nonnull @.str.18, i32 noundef 848, ptr noundef nonnull @.str.130, i32 noundef %30) #11
  %.not39 = icmp eq i32 %31, 0
  br i1 %.not39, label %.critedge, label %32

32:                                               ; preds = %27
  %33 = call i32 @EVP_DigestFinal(ptr noundef %6, ptr noundef nonnull %1, ptr noundef nonnull %4) #11
  %34 = icmp ne i32 %33, 0
  %35 = zext i1 %34 to i32
  %36 = call i32 @test_true(ptr noundef nonnull @.str.18, i32 noundef 849, ptr noundef nonnull @.str.131, i32 noundef %35) #11
  %.not40 = icmp eq i32 %36, 0
  br i1 %.not40, label %.critedge, label %21

37:                                               ; preds = %48
  %38 = add nuw nsw i32 %.145, 1
  %exitcond47.not = icmp eq i32 %38, 5
  br i1 %exitcond47.not, label %53, label %.preheader, !llvm.loop !39

.preheader:                                       ; preds = %21, %37
  %.145 = phi i32 [ %38, %37 ], [ 0, %21 ]
  %39 = call i32 @EVP_EncryptInit_ex(ptr noundef %9, ptr noundef %11, ptr noundef null, ptr noundef nonnull %2, ptr noundef nonnull %3) #11
  %40 = icmp ne i32 %39, 0
  %41 = zext i1 %40 to i32
  %42 = call i32 @test_true(ptr noundef nonnull @.str.18, i32 noundef 853, ptr noundef nonnull @.str.132, i32 noundef %41) #11
  %.not35 = icmp eq i32 %42, 0
  br i1 %.not35, label %.critedge, label %43

43:                                               ; preds = %.preheader
  %44 = call i32 @EVP_EncryptUpdate(ptr noundef %9, ptr noundef nonnull %1, ptr noundef nonnull %5, ptr noundef nonnull @.str.124, i32 noundef 11) #11
  %45 = icmp ne i32 %44, 0
  %46 = zext i1 %45 to i32
  %47 = call i32 @test_true(ptr noundef nonnull @.str.18, i32 noundef 856, ptr noundef nonnull @.str.133, i32 noundef %46) #11
  %.not36 = icmp eq i32 %47, 0
  br i1 %.not36, label %.critedge, label %48

48:                                               ; preds = %43
  %49 = call i32 @EVP_EncryptFinal(ptr noundef %9, ptr noundef nonnull %1, ptr noundef nonnull %5) #11
  %50 = icmp ne i32 %49, 0
  %51 = zext i1 %50 to i32
  %52 = call i32 @test_true(ptr noundef nonnull @.str.18, i32 noundef 857, ptr noundef nonnull @.str.134, i32 noundef %51) #11
  %.not37 = icmp eq i32 %52, 0
  br i1 %.not37, label %.critedge, label %37

53:                                               ; preds = %37
  %54 = load ptr, ptr @multi_libctx, align 8, !tbaa !16
  %.not33 = icmp eq i32 %13, 0
  %55 = select i1 %.not33, i64 512, i64 2048
  %56 = call ptr (ptr, ptr, ptr, ...) @EVP_PKEY_Q_keygen(ptr noundef %54, ptr noundef null, ptr noundef nonnull @.str.135, i64 noundef %55) #11
  %57 = call i32 @test_ptr(ptr noundef nonnull @.str.18, i32 noundef 867, ptr noundef nonnull @.str.136, ptr noundef %56) #11
  %.not34 = icmp eq i32 %57, 0
  call void @EVP_MD_CTX_free(ptr noundef %6) #11
  call void @EVP_MD_free(ptr noundef %8) #11
  call void @EVP_CIPHER_CTX_free(ptr noundef %9) #11
  call void @EVP_CIPHER_free(ptr noundef %11) #11
  call void @EVP_PKEY_free(ptr noundef %56) #11
  br i1 %.not34, label %58, label %multi_set_success.exit

.critedge:                                        ; preds = %.preheader42, %27, %32, %.preheader, %43, %48, %0, %15, %17, %19
  call void @EVP_MD_CTX_free(ptr noundef %6) #11
  call void @EVP_MD_free(ptr noundef %8) #11
  call void @EVP_CIPHER_CTX_free(ptr noundef %9) #11
  call void @EVP_CIPHER_free(ptr noundef %11) #11
  call void @EVP_PKEY_free(ptr noundef null) #11
  br label %58

58:                                               ; preds = %.critedge, %53
  %59 = load ptr, ptr @global_lock, align 8, !tbaa !11
  %60 = call i32 @CRYPTO_THREAD_write_lock(ptr noundef %59) #11
  %61 = icmp eq i32 %60, 0
  store i1 false, ptr @multi_success, align 4
  br i1 %61, label %multi_set_success.exit, label %62

62:                                               ; preds = %58
  %63 = load ptr, ptr @global_lock, align 8, !tbaa !11
  %64 = call i32 @CRYPTO_THREAD_unlock(ptr noundef %63) #11
  br label %multi_set_success.exit

multi_set_success.exit:                           ; preds = %62, %58, %53
  call void @llvm.lifetime.end.p0(i64 4, ptr nonnull %5) #11
  call void @llvm.lifetime.end.p0(i64 4, ptr nonnull %4) #11
  call void @llvm.lifetime.end.p0(i64 16, ptr nonnull %3) #11
  call void @llvm.lifetime.end.p0(i64 16, ptr nonnull %2) #11
  call void @llvm.lifetime.end.p0(i64 64, ptr nonnull %1) #11
  ret void
}